target datalayout = "e-m:e-p270:32:32-p271:32:32-p272:64:64-i64:64-i128:128-f80:128-n8:16:32:64-S128"
target triple = "x86_64-pc-linux-gnu"

%struct.snoop_hdr = type { i32, i32 }
%struct.wtap_dumper = type { ptr, i32, i32, i32, i32, i8, i64, ptr, ptr, ptr, ptr, ptr, ptr, ptr, ptr, ptr, ptr, ptr, ptr, ptr, i32, i32, i32 }

@snoop_magic = internal constant [8 x i8] c"snoop\00\00\00", align 1
@wtap_encap = internal constant [14 x i32] [i32 -1, i32 4, i32 2, i32 -1, i32 -1, i32 8, i32 8, i32 -1, i32 -1, i32 -1, i32 -1, i32 -1, i32 -1, i32 18], align 16

; Function Attrs: null_pointer_is_valid sspstrong uwtable
define internal zeroext i1 @snoop_dump_open(ptr noundef %0, ptr noundef %1, ptr noundef %2) #0 {
  %4 = alloca i1, align 1
  %5 = alloca ptr, align 8
  %6 = alloca ptr, align 8
  %7 = alloca ptr, align 8
  %8 = alloca %struct.snoop_hdr, align 4
  %9 = alloca i32, align 4
  %10 = alloca i32, align 4
  %11 = alloca i32, align 4
  %12 = alloca i32, align 4
  %13 = alloca i32, align 4
  %14 = alloca i32, align 4
  %15 = alloca i32, align 4
  store ptr %0, ptr %5, align 8
  store ptr %1, ptr %6, align 8
  store ptr %2, ptr %7, align 8
  call void @llvm.lifetime.start.p0(i64 8, ptr %8) #12
  %16 = load ptr, ptr %5, align 8
  %17 = getelementptr inbounds nuw %struct.wtap_dumper, ptr %16, i32 0, i32 10
  store ptr @snoop_dump, ptr %17, align 8
  %18 = load ptr, ptr %5, align 8
  %19 = load ptr, ptr %6, align 8
  %20 = call zeroext i1 @wtap_dump_file_write(ptr noundef %18, ptr noundef @snoop_magic, i64 noundef 8, ptr noundef %19)
  br i1 %20, label %22, label %21

21:                                               ; preds = %3
  store i1 false, ptr %4, align 1
  store i32 1, ptr %9, align 4
  br label %84

22:                                               ; preds = %3
  call void @llvm.lifetime.start.p0(i64 4, ptr %10) #12
  call void @llvm.lifetime.start.p0(i64 4, ptr %11) #12
  store i32 2, ptr %11, align 4
  %23 = load i32, ptr %11, align 4
  %24 = call i1 @llvm.is.constant.i32(i32 %23)
  br i1 %24, label %25, label %41

25:                                               ; preds = %22
  %26 = load i32, ptr %11, align 4
  %27 = and i32 %26, 255
  %28 = shl i32 %27, 24
  %29 = load i32, ptr %11, align 4
  %30 = and i32 %29, 65280
  %31 = shl i32 %30, 8
  %32 = or i32 %28, %31
  %33 = load i32, ptr %11, align 4
  %34 = and i32 %33, 16711680
  %35 = lshr i32 %34, 8
  %36 = or i32 %32, %35
  %37 = load i32, ptr %11, align 4
  %38 = and i32 %37, -16777216
  %39 = lshr i32 %38, 24
  %40 = or i32 %36, %39
  store i32 %40, ptr %10, align 4
  br label %44

41:                                               ; preds = %22
  %42 = load i32, ptr %11, align 4
  %43 = call i32 asm "bswapl $0", "=r,0,~{dirflag},~{fpsr},~{flags}"(i32 %42) #14, !srcloc !19
  store i32 %43, ptr %10, align 4
  br label %44

44:                                               ; preds = %41, %25
  %45 = load i32, ptr %10, align 4
  store i32 %45, ptr %12, align 4
  call void @llvm.lifetime.end.p0(i64 4, ptr %11) #12
  call void @llvm.lifetime.end.p0(i64 4, ptr %10) #12
  %46 = load i32, ptr %12, align 4
  %47 = getelementptr inbounds nuw %struct.snoop_hdr, ptr %8, i32 0, i32 0
  store i32 %46, ptr %47, align 4
  call void @llvm.lifetime.start.p0(i64 4, ptr %13) #12
  call void @llvm.lifetime.start.p0(i64 4, ptr %14) #12
  %48 = load ptr, ptr %5, align 8
  %49 = getelementptr inbounds nuw %struct.wtap_dumper, ptr %48, i32 0, i32 3
  %50 = load i32, ptr %49, align 8
  %51 = sext i32 %50 to i64
  %52 = getelementptr [14 x i32], ptr @wtap_encap, i64 0, i64 %51
  %53 = load i32, ptr %52, align 4
  store i32 %53, ptr %14, align 4
  %54 = load i32, ptr %14, align 4
  %55 = call i1 @llvm.is.constant.i32(i32 %54)
  br i1 %55, label %56, label %72

56:                                               ; preds = %44
  %57 = load i32, ptr %14, align 4
  %58 = and i32 %57, 255
  %59 = shl i32 %58, 24
  %60 = load i32, ptr %14, align 4
  %61 = and i32 %60, 65280
  %62 = shl i32 %61, 8
  %63 = or i32 %59, %62
  %64 = load i32, ptr %14, align 4
  %65 = and i32 %64, 16711680
  %66 = lshr i32 %65, 8
  %67 = or i32 %63, %66
  %68 = load i32, ptr %14, align 4
  %69 = and i32 %68, -16777216
  %70 = lshr i32 %69, 24
  %71 = or i32 %67, %70
  store i32 %71, ptr %13, align 4
  br label %75

72:                                               ; preds = %44
  %73 = load i32, ptr %14, align 4
  %74 = call i32 asm "bswapl $0", "=r,0,~{dirflag},~{fpsr},~{flags}"(i32 %73) #14, !srcloc !20
  store i32 %74, ptr %13, align 4
  br label %75

75:                                               ; preds = %72, %56
  %76 = load i32, ptr %13, align 4
  store i32 %76, ptr %15, align 4
  call void @llvm.lifetime.end.p0(i64 4, ptr %14) #12
  call void @llvm.lifetime.end.p0(i64 4, ptr %13) #12
  %77 = load i32, ptr %15, align 4
  %78 = getelementptr inbounds nuw %struct.snoop_hdr, ptr %8, i32 0, i32 1
  store i32 %77, ptr %78, align 4
  %79 = load ptr, ptr %5, align 8
  %80 = load ptr, ptr %6, align 8
  %81 = call zeroext i1 @wtap_dump_file_write(ptr noundef %79, ptr noundef %8, i64 noundef 8, ptr noundef %80)
  br i1 %81, label %83, label %82

82:                                               ; preds = %75
  store i1 false, ptr %4, align 1
  store i32 1, ptr %9, align 4
  br label %84

83:                                               ; preds = %75
  store i1 true, ptr %4, align 1
  store i32 1, ptr %9, align 4
  br label %84

84:                                               ; preds = %83, %82, %21
  call void @llvm.lifetime.end.p0(i64 8, ptr %8) #12
  %85 = load i1, ptr %4, align 1
  ret i1 %85
}