; Function Attrs: null_pointer_is_valid sspstrong uwtable
define internal zeroext i1 @snoop_dump_open(ptr noundef initializes((64, 72)) %0, ptr noundef %1, ptr readnone captures(none) %2) #0 {
  %4 = alloca %struct.snoop_hdr, align 4
  call void @llvm.lifetime.start.p0(i64 8, ptr nonnull %4) #8
  %5 = getelementptr inbounds nuw i8, ptr %0, i64 64
  store ptr @snoop_dump, ptr %5, align 8
  %6 = tail call zeroext i1 @wtap_dump_file_write(ptr noundef %0, ptr noundef nonnull @snoop_magic, i64 noundef 8, ptr noundef %1)
  br i1 %6, label %7, label %16

7:                                                ; preds = %3
  store i32 33554432, ptr %4, align 4
  %8 = getelementptr inbounds nuw i8, ptr %0, i64 16
  %9 = load i32, ptr %8, align 8
  %10 = sext i32 %9 to i64
  %11 = getelementptr [14 x i32], ptr @wtap_encap, i64 0, i64 %10
  %12 = load i32, ptr %11, align 4
  %13 = tail call i32 asm "bswapl $0", "=r,0,~{dirflag},~{fpsr},~{flags}"(i32 %12) #9, !srcloc !19
  %14 = getelementptr inbounds nuw i8, ptr %4, i64 4
  store i32 %13, ptr %14, align 4
  %15 = call zeroext i1 @wtap_dump_file_write(ptr noundef %0, ptr noundef nonnull %4, i64 noundef 8, ptr noundef %1)
  br label %16

16:                                               ; preds = %7, %3
  %.0 = phi i1 [ false, %3 ], [ %15, %7 ]
  call void @llvm.lifetime.end.p0(i64 8, ptr nonnull %4) #8
  ret i1 %.0
}